target datalayout = "e-m:e-p270:32:32-p271:32:32-p272:64:64-i64:64-i128:128-f80:128-n8:16:32:64-S128"
target triple = "x86_64-pc-linux-gnu"

; Function Attrs: nounwind uwtable
define i32 @lv_canvas_buf_size(i32 noundef %0, i32 noundef %1, i8 noundef zeroext %2, i8 noundef zeroext %3) #0 {
  %5 = alloca i32, align 4
  %6 = alloca i32, align 4
  %7 = alloca i8, align 1
  %8 = alloca i8, align 1
  store i32 %0, ptr %5, align 4, !tbaa !17
  store i32 %1, ptr %6, align 4, !tbaa !17
  store i8 %2, ptr %7, align 1, !tbaa !18
  store i8 %3, ptr %8, align 1, !tbaa !18
  %9 = load i32, ptr %5, align 4, !tbaa !17
  %10 = load i8, ptr %7, align 1, !tbaa !18
  %11 = zext i8 %10 to i32
  %12 = mul nsw i32 %9, %11
  %13 = add nsw i32 %12, 7
  %14 = ashr i32 %13, 3
  %15 = load i8, ptr %8, align 1, !tbaa !18
  %16 = zext i8 %15 to i32
  %17 = add nsw i32 %14, %16
  %18 = sub nsw i32 %17, 1
  %19 = load i8, ptr %8, align 1, !tbaa !18
  %20 = zext i8 %19 to i32
  %21 = sub nsw i32 %20, 1
  %22 = xor i32 %21, -1
  %23 = and i32 %18, %22
  %24 = load i32, ptr %6, align 4, !tbaa !17
  %25 = mul nsw i32 %23, %24
  %26 = add nsw i32 %25, 4
  ret i32 %26
}