; Function Attrs: mustprogress nofree norecurse nosync nounwind willreturn memory(none) uwtable
define range(i32 -2147483644, -2147483648) i32 @lv_canvas_buf_size(i32 noundef %0, i32 noundef %1, i8 noundef zeroext %2, i8 noundef zeroext %3) local_unnamed_addr #0 {
  %5 = zext i8 %2 to i32
  %6 = mul nsw i32 %0, %5
  %7 = add nsw i32 %6, 7
  %8 = ashr i32 %7, 3
  %9 = zext i8 %3 to i32
  %10 = add nsw i32 %9, -1
  %11 = add nsw i32 %10, %8
  %12 = sub nsw i32 0, %9
  %13 = and i32 %11, %12
  %14 = mul nsw i32 %13, %1
  %15 = add nsw i32 %14, 4
  ret i32 %15
}